; Function Attrs: mustprogress uwtable
define void @_ZN6casadi9SqpmethodC2ERKNSt7__cxx1112basic_stringIcSt11char_traitsIcESaIcEEERKNS_8FunctionE(ptr noundef nonnull align 8 dereferenceable(2386) %0, ptr noundef nonnull align 8 dereferenceable(32) %1, ptr noundef nonnull align 8 dereferenceable(8) %2) unnamed_addr #4 align 2 personality ptr @__gxx_personality_v0 {
  tail call void @_ZN6casadi6NlpsolC2ERKNSt7__cxx1112basic_stringIcSt11char_traitsIcESaIcEEERKNS_8FunctionE(ptr noundef nonnull align 8 dereferenceable(1976) %0, ptr noundef nonnull align 8 dereferenceable(32) %1, ptr noundef nonnull align 8 dereferenceable(8) %2)
  store ptr getelementptr inbounds nuw inrange(-16, 1024) (i8, ptr @_ZTVN6casadi9SqpmethodE, i64 16), ptr %0, align 8, !tbaa !32
  %4 = getelementptr inbounds nuw i8, ptr %0, i64 1528
  store ptr getelementptr inbounds nuw inrange(-16, 8) (i8, ptr @_ZTVN6casadi9SqpmethodE, i64 1056), ptr %4, align 8, !tbaa !32
  %5 = getelementptr inbounds nuw i8, ptr %0, i64 2024
  invoke void @_ZN6casadi8FunctionC1Ev(ptr noundef nonnull align 8 dereferenceable(8) %5)
          to label %6 unwind label %16

6:                                                ; preds = %3
  %7 = getelementptr inbounds nuw i8, ptr %0, i64 2032
  invoke void @_ZN6casadi8FunctionC1Ev(ptr noundef nonnull align 8 dereferenceable(8) %7)
          to label %8 unwind label %18

8:                                                ; preds = %6
  %9 = getelementptr inbounds nuw i8, ptr %0, i64 2048
  store i64 0, ptr %9, align 8, !tbaa !34
  %10 = getelementptr inbounds nuw i8, ptr %0, i64 2184
  invoke void @_ZN6casadi8SparsityC1Ex(ptr noundef nonnull align 8 dereferenceable(8) %10, i64 noundef 0)
          to label %11 unwind label %20

11:                                               ; preds = %8
  %12 = getelementptr inbounds nuw i8, ptr %0, i64 2192
  invoke void @_ZN6casadi8SparsityC1Ex(ptr noundef nonnull align 8 dereferenceable(8) %12, i64 noundef 0)
          to label %13 unwind label %22

13:                                               ; preds = %11
  %14 = getelementptr inbounds nuw i8, ptr %0, i64 2200
  invoke void @_ZN6casadi13ConvexifyDataC2Ev(ptr noundef nonnull align 8 dereferenceable(184) %14)
          to label %15 unwind label %24

15:                                               ; preds = %13
  ret void

16:                                               ; preds = %3
  %17 = landingpad { ptr, i32 }
          cleanup
  br label %33

18:                                               ; preds = %6
  %19 = landingpad { ptr, i32 }
          cleanup
  br label %32

20:                                               ; preds = %8
  %21 = landingpad { ptr, i32 }
          cleanup
  br label %_ZN6casadi13GenericSharedINS_12SharedObjectENS_20SharedObjectInternalEED2Ev.exit12

22:                                               ; preds = %11
  %23 = landingpad { ptr, i32 }
          cleanup
  br label %_ZN6casadi13GenericSharedINS_12SharedObjectENS_20SharedObjectInternalEED2Ev.exit

24:                                               ; preds = %13
  %25 = landingpad { ptr, i32 }
          cleanup
  invoke void @_ZN6casadi13GenericSharedINS_12SharedObjectENS_20SharedObjectInternalEE10count_downEv(ptr noundef nonnull align 8 dereferenceable(8) %12)
          to label %_ZN6casadi13GenericSharedINS_12SharedObjectENS_20SharedObjectInternalEED2Ev.exit unwind label %26

26:                                               ; preds = %24
  %27 = landingpad { ptr, i32 }
          catch ptr null
  %28 = extractvalue { ptr, i32 } %27, 0
  tail call void @__clang_call_terminate(ptr %28) #31
  unreachable

_ZN6casadi13GenericSharedINS_12SharedObjectENS_20SharedObjectInternalEED2Ev.exit: ; preds = %24, %22
  %.pn = phi { ptr, i32 } [ %23, %22 ], [ %25, %24 ]
  invoke void @_ZN6casadi13GenericSharedINS_12SharedObjectENS_20SharedObjectInternalEE10count_downEv(ptr noundef nonnull align 8 dereferenceable(8) %10)
          to label %_ZN6casadi13GenericSharedINS_12SharedObjectENS_20SharedObjectInternalEED2Ev.exit12 unwind label %29

29:                                               ; preds = %_ZN6casadi13GenericSharedINS_12SharedObjectENS_20SharedObjectInternalEED2Ev.exit
  %30 = landingpad { ptr, i32 }
          catch ptr null
  %31 = extractvalue { ptr, i32 } %30, 0
  tail call void @__clang_call_terminate(ptr %31) #31
  unreachable

_ZN6casadi13GenericSharedINS_12SharedObjectENS_20SharedObjectInternalEED2Ev.exit12: ; preds = %_ZN6casadi13GenericSharedINS_12SharedObjectENS_20SharedObjectInternalEED2Ev.exit, %20
  %.pn.pn = phi { ptr, i32 } [ %21, %20 ], [ %.pn, %_ZN6casadi13GenericSharedINS_12SharedObjectENS_20SharedObjectInternalEED2Ev.exit ]
  tail call void @_ZN6casadi8FunctionD1Ev(ptr noundef nonnull align 8 dereferenceable(8) %7) #28
  br label %32

32:                                               ; preds = %_ZN6casadi13GenericSharedINS_12SharedObjectENS_20SharedObjectInternalEED2Ev.exit12, %18
  %.pn.pn.pn = phi { ptr, i32 } [ %.pn.pn, %_ZN6casadi13GenericSharedINS_12SharedObjectENS_20SharedObjectInternalEED2Ev.exit12 ], [ %19, %18 ]
  tail call void @_ZN6casadi8FunctionD1Ev(ptr noundef nonnull align 8 dereferenceable(8) %5) #28
  br label %33

33:                                               ; preds = %32, %16
  %.pn.pn.pn.pn = phi { ptr, i32 } [ %.pn.pn.pn, %32 ], [ %17, %16 ]
  tail call void @_ZN6casadi6NlpsolD2Ev(ptr noundef nonnull align 8 dereferenceable(1976) %0) #28
  resume { ptr, i32 } %.pn.pn.pn.pn
}